; Function Attrs: mustprogress uwtable
define dso_local noundef ptr @_ZN16VariableSelector25GenerateParameterVariableEPK4TypePK12CVQualifiers(ptr noundef %0, ptr noundef %1) local_unnamed_addr #4 align 2 personality ptr @__gxx_personality_v0 {
  %3 = alloca %"class.std::__cxx11::basic_string", align 8
  call void @_Z6gensymB5cxx11PKc(ptr dead_on_unwind nonnull writable sret(%"class.std::__cxx11::basic_string") align 8 %3, ptr noundef nonnull @.str.6)
  %4 = invoke noundef ptr @_ZN16VariableSelector12new_variableERKNSt7__cxx1112basic_stringIcSt11char_traitsIcESaIcEEEPK4TypePK10ExpressionPK12CVQualifiers(ptr noundef nonnull align 8 dereferenceable(32) %3, ptr noundef %0, ptr noundef null, ptr noundef %1)
          to label %5 unwind label %6

5:                                                ; preds = %2
  call void @_ZNSt7__cxx1112basic_stringIcSt11char_traitsIcESaIcEED1Ev(ptr noundef nonnull align 8 dereferenceable(32) %3) #19
  ret ptr %4

6:                                                ; preds = %2
  %7 = landingpad { ptr, i32 }
          cleanup
  call void @_ZNSt7__cxx1112basic_stringIcSt11char_traitsIcESaIcEED1Ev(ptr noundef nonnull align 8 dereferenceable(32) %3) #19
  resume { ptr, i32 } %7
}